; Function Attrs: nounwind uwtable
define void @Gia_ManFindCaninicalOrder_rec(ptr noundef %0, ptr noundef %1, ptr noundef %2) local_unnamed_addr #8 {
  %4 = getelementptr inbounds nuw i8, ptr %0, i64 616
  %5 = load ptr, ptr %4, align 8, !tbaa !96
  %6 = getelementptr i8, ptr %0, i64 32
  %.val.i = load ptr, ptr %6, align 8, !tbaa !42
  %7 = ptrtoint ptr %1 to i64
  %8 = ptrtoint ptr %.val.i to i64
  %9 = sub i64 %7, %8
  %10 = sdiv exact i64 %9, 12
  %sext.i = shl i64 %10, 32
  %11 = ashr exact i64 %sext.i, 30
  %12 = getelementptr inbounds i8, ptr %5, i64 %11
  %13 = load i32, ptr %12, align 4, !tbaa !43
  %14 = getelementptr inbounds nuw i8, ptr %0, i64 176
  %15 = load i32, ptr %14, align 8, !tbaa !95
  %.not = icmp eq i32 %13, %15
  br i1 %.not, label %85, label %16

16:                                               ; preds = %3
  store i32 %15, ptr %12, align 4, !tbaa !43
  %17 = load i64, ptr %1, align 4
  %18 = and i64 %17, 536870911
  %19 = sub nsw i64 0, %18
  %20 = getelementptr inbounds %struct.Gia_Obj_t_, ptr %1, i64 %19
  %.val32 = load i64, ptr %20, align 4
  %21 = and i64 %.val32, 2147483648
  %.not.i = icmp ne i64 %21, 0
  %22 = and i64 %.val32, 536870911
  %23 = icmp eq i64 %22, 536870911
  %narrow.i.not = or i1 %.not.i, %23
  br i1 %narrow.i.not, label %32, label %24

24:                                               ; preds = %16
  %25 = lshr i64 %17, 32
  %26 = and i64 %25, 536870911
  %27 = sub nsw i64 0, %26
  %28 = getelementptr inbounds %struct.Gia_Obj_t_, ptr %1, i64 %27
  %.val31 = load i64, ptr %28, align 4
  %29 = and i64 %.val31, 2147483648
  %.not.i35 = icmp ne i64 %29, 0
  %30 = and i64 %.val31, 536870911
  %31 = icmp eq i64 %30, 536870911
  %narrow.i36.not = or i1 %.not.i35, %31
  br i1 %narrow.i36.not, label %32, label %35

32:                                               ; preds = %24, %16
  tail call void @Gia_ManFindCaninicalOrder_rec(ptr noundef nonnull %0, ptr noundef nonnull %20, ptr noundef %2)
  %33 = load i64, ptr %1, align 4
  %34 = lshr i64 %33, 32
  br label %46

35:                                               ; preds = %24
  %36 = getelementptr inbounds nuw i8, ptr %20, i64 8
  %37 = load i32, ptr %36, align 4, !tbaa !44
  %38 = getelementptr inbounds nuw i8, ptr %28, i64 8
  %39 = load i32, ptr %38, align 4, !tbaa !44
  %40 = icmp ult i32 %37, %39
  br i1 %40, label %41, label %44

41:                                               ; preds = %35
  tail call void @Gia_ManFindCaninicalOrder_rec(ptr noundef nonnull %0, ptr noundef nonnull %20, ptr noundef %2)
  %42 = load i64, ptr %1, align 4
  %43 = lshr i64 %42, 32
  br label %46

44:                                               ; preds = %35
  tail call void @Gia_ManFindCaninicalOrder_rec(ptr noundef nonnull %0, ptr noundef nonnull %28, ptr noundef %2)
  %45 = load i64, ptr %1, align 4
  br label %46

46:                                               ; preds = %41, %44, %32
  %.sink40 = phi i64 [ %43, %41 ], [ %45, %44 ], [ %34, %32 ]
  %47 = and i64 %.sink40, 536870911
  %48 = sub nsw i64 0, %47
  %49 = getelementptr inbounds %struct.Gia_Obj_t_, ptr %1, i64 %48
  tail call void @Gia_ManFindCaninicalOrder_rec(ptr noundef nonnull %0, ptr noundef nonnull %49, ptr noundef %2)
  %.val = load ptr, ptr %6, align 8, !tbaa !42
  %50 = ptrtoint ptr %.val to i64
  %51 = sub i64 %7, %50
  %52 = sdiv exact i64 %51, 12
  %53 = trunc i64 %52 to i32
  %54 = getelementptr inbounds nuw i8, ptr %2, i64 4
  %55 = load i32, ptr %54, align 4, !tbaa !37
  %56 = load i32, ptr %2, align 8, !tbaa !38
  %57 = icmp eq i32 %55, %56
  br i1 %57, label %58, label %.Vec_IntGrow.exit10_crit_edge.i

.Vec_IntGrow.exit10_crit_edge.i:                  ; preds = %46
  %.phi.trans.insert.i = getelementptr inbounds nuw i8, ptr %2, i64 8
  %.pre.i = load ptr, ptr %.phi.trans.insert.i, align 8, !tbaa !39
  br label %Vec_IntPush.exit

58:                                               ; preds = %46
  %59 = icmp slt i32 %55, 16
  br i1 %59, label %60, label %68

60:                                               ; preds = %58
  %61 = getelementptr inbounds nuw i8, ptr %2, i64 8
  %62 = load ptr, ptr %61, align 8, !tbaa !39
  %.not9.i.i = icmp eq ptr %62, null
  br i1 %.not9.i.i, label %65, label %63

63:                                               ; preds = %60
  %64 = tail call dereferenceable_or_null(64) ptr @realloc(ptr noundef nonnull %62, i64 noundef 64) #27
  br label %Vec_IntGrow.exit.i

65:                                               ; preds = %60
  %66 = tail call noalias dereferenceable_or_null(64) ptr @malloc(i64 noundef 64) #25
  br label %Vec_IntGrow.exit.i

Vec_IntGrow.exit.i:                               ; preds = %65, %63
  %67 = phi ptr [ %64, %63 ], [ %66, %65 ]
  store ptr %67, ptr %61, align 8, !tbaa !39
  store i32 16, ptr %2, align 8, !tbaa !38
  br label %Vec_IntPush.exit

68:                                               ; preds = %58
  %69 = shl nuw nsw i32 %55, 1
  %70 = getelementptr inbounds nuw i8, ptr %2, i64 8
  %71 = load ptr, ptr %70, align 8, !tbaa !39
  %.not9.i9.i = icmp eq ptr %71, null
  %72 = zext nneg i32 %69 to i64
  %73 = shl nuw nsw i64 %72, 2
  br i1 %.not9.i9.i, label %76, label %74

74:                                               ; preds = %68
  %75 = tail call ptr @realloc(ptr noundef nonnull %71, i64 noundef %73) #27
  br label %78

76:                                               ; preds = %68
  %77 = tail call noalias ptr @malloc(i64 noundef %73) #25
  br label %78

78:                                               ; preds = %76, %74
  %79 = phi ptr [ %75, %74 ], [ %77, %76 ]
  store ptr %79, ptr %70, align 8, !tbaa !39
  store i32 %69, ptr %2, align 8, !tbaa !38
  br label %Vec_IntPush.exit

Vec_IntPush.exit:                                 ; preds = %.Vec_IntGrow.exit10_crit_edge.i, %Vec_IntGrow.exit.i, %78
  %80 = phi ptr [ %.pre.i, %.Vec_IntGrow.exit10_crit_edge.i ], [ %79, %78 ], [ %67, %Vec_IntGrow.exit.i ]
  %81 = load i32, ptr %54, align 4, !tbaa !37
  %82 = add nsw i32 %81, 1
  store i32 %82, ptr %54, align 4, !tbaa !37
  %83 = sext i32 %81 to i64
  %84 = getelementptr inbounds i32, ptr %80, i64 %83
  store i32 %53, ptr %84, align 4, !tbaa !43
  br label %85

85:                                               ; preds = %3, %Vec_IntPush.exit
  ret void
}